; Function Attrs: mustprogress uwtable
define void @_ZNK6google8protobuf11MessageLite22SerializePartialAsCordEv(ptr noalias sret(%"class.absl::lts_20230802::Cord") align 8 %agg.result, ptr noundef nonnull align 8 dereferenceable(16) %this) local_unnamed_addr #3 align 2 personality ptr @__gxx_personality_v0 {
entry:
  tail call void @llvm.memset.p0.i64(ptr noundef nonnull align 8 dereferenceable(16) %agg.result, i8 0, i64 16, i1 false)
  %call = invoke noundef zeroext i1 @_ZNK6google8protobuf11MessageLite19AppendPartialToCordEPN4absl12lts_202308024CordE(ptr noundef nonnull align 8 dereferenceable(16) %this, ptr noundef nonnull %agg.result)
          to label %invoke.cont unwind label %lpad

invoke.cont:                                      ; preds = %entry
  br i1 %call, label %nrvo.skipdtor, label %if.then

if.then:                                          ; preds = %invoke.cont
  invoke void @_ZN4absl12lts_202308024Cord5ClearEv(ptr noundef nonnull align 8 dereferenceable(16) %agg.result)
          to label %nrvo.skipdtor unwind label %lpad

lpad:                                             ; preds = %if.then, %entry
  %0 = landingpad { ptr, i32 }
          cleanup
  tail call void @_ZN4absl12lts_202308024CordD2Ev(ptr noundef nonnull align 8 dereferenceable(16) %agg.result) #20
  resume { ptr, i32 } %0

nrvo.skipdtor:                                    ; preds = %invoke.cont, %if.then
  ret void
}